target datalayout = "e-m:e-p270:32:32-p271:32:32-p272:64:64-i64:64-i128:128-f80:128-n8:16:32:64-S128"
target triple = "x86_64-pc-linux-gnu"

%struct.ssl_st = type { i32, ptr, ptr, ptr, %struct.CRYPTO_REF_COUNT, ptr, %struct.crypto_ex_data_st }
%struct.CRYPTO_REF_COUNT = type { i32 }
%struct.crypto_ex_data_st = type { ptr, ptr }
%struct.ssl_connection_st = type { %struct.ssl_st, ptr, i32, ptr, ptr, ptr, i32, ptr, i32, i32, i32, i32, %struct.OSSL_TIME, %struct.OSSL_TIME, %struct.ossl_statem_st, i32, ptr, ptr, i64, i64, i64, %struct.ossl_quic_tls_callbacks_st, ptr, ptr, %struct.anon, ptr, ptr, ptr, i32, ptr, %struct.ssl_dane_st, ptr, ptr, ptr, ptr, i32, [64 x i8], [64 x i8], [64 x i8], [64 x i8], [64 x i8], [64 x i8], [64 x i8], [64 x i8], [64 x i8], [64 x i8], [64 x i8], [64 x i8], ptr, [64 x i8], i64, i32, i64, [32 x i8], ptr, ptr, ptr, i64, ptr, [32 x i8], i64, i32, ptr, ptr, i32, i32, ptr, ptr, ptr, ptr, ptr, i64, ptr, ptr, i64, i32, i32, i32, i64, i32, i32, i64, i64, i64, %struct.anon.1, ptr, i32, ptr, ptr, ptr, i32, ptr, ptr, ptr, i32, i32, i32, i32, ptr, i64, i32, ptr, %struct.srp_ctx_st, ptr, %struct.record_layer_st, ptr, ptr, ptr, ptr, i64, i32, i32, i32, i64, i64, i64, ptr, ptr, ptr, ptr, ptr, i64, ptr, i64, ptr, i64 }
%struct.OSSL_TIME = type { i64 }
%struct.ossl_statem_st = type { i32, i32, i32, i32, i32, i32, i32, i32, i32, i32, i32, i32, i32, ptr, ptr, ptr, i8 }
%struct.ossl_quic_tls_callbacks_st = type { ptr, ptr, ptr, ptr, ptr, ptr }
%struct.anon = type { i64, [32 x i8], [32 x i8], ptr, ptr, i32, i32, i32, i32, [2 x i8], i32, i32, i32, i32, %struct.anon.0, [64 x i8], i64, [64 x i8], i64, i32, i32, ptr, i64, ptr, i64, i32, i8, i8, i16, ptr, i16 }
%struct.anon.0 = type { [128 x i8], i64, [128 x i8], i64, i64, i32, ptr, ptr, [4 x ptr], [4 x i16], i64, i32, ptr, i64, ptr, i64, ptr, ptr, ptr, i32, i64, ptr, i32, ptr, i64, ptr, i64, ptr, i64, ptr, ptr, ptr, ptr, i64, i64, ptr, ptr, i32, i32, i32, i32 }
%struct.ssl_dane_st = type { ptr, ptr, ptr, ptr, ptr, i32, i32, i32, i64 }
%struct.anon.1 = type { [29 x i8], ptr, ptr, ptr, i32, ptr, i16, i32, %struct.anon.2, i32, i32, i64, ptr, i64, ptr, i64, ptr, i64, ptr, i64, ptr, i64, ptr, ptr, ptr, ptr, ptr, ptr, ptr, i64, ptr, i64, i32, i32, i32, i32, ptr, i64, i32, i8, i32, [4 x i32], i32, i8, i8, i8, i8 }
%struct.anon.2 = type { ptr, ptr, ptr, i64 }
%struct.srp_ctx_st = type { ptr, ptr, ptr, ptr, ptr, ptr, ptr, ptr, ptr, ptr, ptr, ptr, ptr, ptr, i32, i64 }
%struct.record_layer_st = type { ptr, ptr, ptr, ptr, ptr, ptr, ptr, ptr, i64, i32, i64, [4 x i8], i64, i64, i8, ptr, i32, ptr, ptr, ptr, i64, i64, i64, i64, [32 x %struct.tls_record_st] }
%struct.tls_record_st = type { ptr, i32, i8, ptr, ptr, i64, i64, i16, [8 x i8] }

; Function Attrs: nounwind uwtable
define internal i32 @crypto_send_cb(ptr noundef %0, i64 noundef %1, ptr noundef %2, ptr noundef %3) #0 {
  %5 = alloca i32, align 4
  %6 = alloca ptr, align 8
  %7 = alloca i64, align 8
  %8 = alloca ptr, align 8
  %9 = alloca ptr, align 8
  %10 = alloca ptr, align 8
  %11 = alloca ptr, align 8
  %12 = alloca i32, align 4
  store ptr %0, ptr %6, align 8, !tbaa !107
  store i64 %1, ptr %7, align 8, !tbaa !108
  store ptr %2, ptr %8, align 8, !tbaa !109
  store ptr %3, ptr %9, align 8, !tbaa !10
  call void @llvm.lifetime.start.p0(i64 8, ptr %10) #4
  %13 = load ptr, ptr %9, align 8, !tbaa !10
  store ptr %13, ptr %10, align 8, !tbaa !3
  call void @llvm.lifetime.start.p0(i64 8, ptr %11) #4
  %14 = load ptr, ptr %10, align 8, !tbaa !3
  %15 = icmp eq ptr %14, null
  br i1 %15, label %16, label %17

16:                                               ; preds = %4
  br label %38

17:                                               ; preds = %4
  %18 = load ptr, ptr %10, align 8, !tbaa !3
  %19 = getelementptr inbounds nuw %struct.ssl_st, ptr %18, i32 0, i32 0
  %20 = load i32, ptr %19, align 8, !tbaa !11
  %21 = icmp eq i32 %20, 0
  br i1 %21, label %22, label %24

22:                                               ; preds = %17
  %23 = load ptr, ptr %10, align 8, !tbaa !3
  br label %36

24:                                               ; preds = %17
  %25 = load ptr, ptr %10, align 8, !tbaa !3
  %26 = getelementptr inbounds nuw %struct.ssl_st, ptr %25, i32 0, i32 0
  %27 = load i32, ptr %26, align 8, !tbaa !11
  %28 = and i32 %27, 128
  %29 = icmp ne i32 %28, 0
  br i1 %29, label %30, label %33

30:                                               ; preds = %24
  %31 = load ptr, ptr %10, align 8, !tbaa !3
  %32 = call ptr @ossl_quic_obj_get0_handshake_layer(ptr noundef %31)
  br label %34

33:                                               ; preds = %24
  br label %34

34:                                               ; preds = %33, %30
  %35 = phi ptr [ %32, %30 ], [ null, %33 ]
  br label %36

36:                                               ; preds = %34, %22
  %37 = phi ptr [ %23, %22 ], [ %35, %34 ]
  br label %38

38:                                               ; preds = %36, %16
  %39 = phi ptr [ null, %16 ], [ %37, %36 ]
  store ptr %39, ptr %11, align 8, !tbaa !20
  %40 = load ptr, ptr %11, align 8, !tbaa !20
  %41 = icmp eq ptr %40, null
  br i1 %41, label %42, label %43

42:                                               ; preds = %38
  store i32 0, ptr %5, align 4
  store i32 1, ptr %12, align 4
  br label %56

43:                                               ; preds = %38
  %44 = load ptr, ptr %11, align 8, !tbaa !20
  %45 = getelementptr inbounds nuw %struct.ssl_connection_st, ptr %44, i32 0, i32 21
  %46 = getelementptr inbounds nuw %struct.ossl_quic_tls_callbacks_st, ptr %45, i32 0, i32 0
  %47 = load ptr, ptr %46, align 8, !tbaa !110
  %48 = load ptr, ptr %10, align 8, !tbaa !3
  %49 = load ptr, ptr %6, align 8, !tbaa !107
  %50 = load i64, ptr %7, align 8, !tbaa !108
  %51 = load ptr, ptr %8, align 8, !tbaa !109
  %52 = load ptr, ptr %11, align 8, !tbaa !20
  %53 = getelementptr inbounds nuw %struct.ssl_connection_st, ptr %52, i32 0, i32 22
  %54 = load ptr, ptr %53, align 8, !tbaa !22
  %55 = call i32 %47(ptr noundef %48, ptr noundef %49, i64 noundef %50, ptr noundef %51, ptr noundef %54)
  store i32 %55, ptr %5, align 4
  store i32 1, ptr %12, align 4
  br label %56

56:                                               ; preds = %43, %42
  call void @llvm.lifetime.end.p0(i64 8, ptr %11) #4
  call void @llvm.lifetime.end.p0(i64 8, ptr %10) #4
  %57 = load i32, ptr %5, align 4
  ret i32 %57
}