; Function Attrs: nounwind uwtable
define internal i32 @crypto_send_cb(ptr noundef %0, i64 noundef %1, ptr noundef %2, ptr noundef %3) #0 {
  %5 = icmp eq ptr %3, null
  br i1 %5, label %.thread, label %6

6:                                                ; preds = %4
  %7 = load i32, ptr %3, align 8, !tbaa !3
  %8 = icmp eq i32 %7, 0
  br i1 %8, label %.thread16, label %9

9:                                                ; preds = %6
  %10 = and i32 %7, 128
  %.not = icmp eq i32 %10, 0
  br i1 %.not, label %.thread, label %11

11:                                               ; preds = %9
  %12 = tail call ptr @ossl_quic_obj_get0_handshake_layer(ptr noundef nonnull %3) #5
  %13 = icmp eq ptr %12, null
  br i1 %13, label %.thread, label %.thread16

.thread16:                                        ; preds = %6, %11
  %14 = phi ptr [ %12, %11 ], [ %3, %6 ]
  %15 = getelementptr inbounds nuw i8, ptr %14, i64 288
  %16 = load ptr, ptr %15, align 8, !tbaa !99
  %17 = getelementptr inbounds nuw i8, ptr %14, i64 336
  %18 = load ptr, ptr %17, align 8, !tbaa !27
  %19 = tail call i32 %16(ptr noundef nonnull %3, ptr noundef %0, i64 noundef %1, ptr noundef %2, ptr noundef %18) #5
  br label %.thread

.thread:                                          ; preds = %9, %4, %11, %.thread16
  %.0 = phi i32 [ %19, %.thread16 ], [ 0, %11 ], [ 0, %4 ], [ 0, %9 ]
  ret i32 %.0
}